; Function Attrs: nounwind uwtable
define ptr @l_String_foldlAux___at_Lake_Toml_decodeDecNum___spec__1(ptr noundef %0, ptr noundef %1, ptr noundef %2, ptr noundef %3) local_unnamed_addr #0 {
  %5 = ptrtoint ptr %1 to i64
  %6 = and i64 %5, 1
  %.not64 = icmp eq i64 %6, 0
  br label %lean_dec.exit38.outer

lean_dec.exit38.outer:                            ; preds = %lean_dec.exit38.outer.backedge, %4
  %.029.ph = phi ptr [ %3, %4 ], [ %.029.ph.be, %lean_dec.exit38.outer.backedge ]
  %.027.ph = phi ptr [ %2, %4 ], [ %20, %lean_dec.exit38.outer.backedge ]
  br label %lean_dec.exit38

lean_dec.exit38:                                  ; preds = %lean_dec.exit38.outer, %lean_dec.exit37
  %.027 = phi ptr [ %20, %lean_dec.exit37 ], [ %.027.ph, %lean_dec.exit38.outer ]
  %7 = ptrtoint ptr %.027 to i64
  %8 = and i64 %7, 1
  %.not = icmp eq i64 %8, 0
  br i1 %.not, label %lean_nat_lt.exit.thread62, label %9, !prof !15

9:                                                ; preds = %lean_dec.exit38
  br i1 %.not64, label %lean_nat_lt.exit, label %lean_nat_lt.exit.thread, !prof !15

lean_nat_lt.exit:                                 ; preds = %9
  %10 = tail call zeroext i1 @lean_nat_big_lt(ptr noundef %.027, ptr noundef %1) #7
  br i1 %10, label %19, label %.thread

lean_nat_lt.exit.thread62:                        ; preds = %lean_dec.exit38
  %11 = tail call zeroext i1 @lean_nat_big_lt(ptr noundef %.027, ptr noundef %1) #7
  br i1 %11, label %19, label %12

lean_nat_lt.exit.thread:                          ; preds = %9
  %.not65 = icmp ult ptr %.027, %1
  br i1 %.not65, label %19, label %.thread

12:                                               ; preds = %lean_nat_lt.exit.thread62
  %13 = load i32, ptr %.027, align 4, !tbaa !8
  %14 = icmp sgt i32 %13, 1
  br i1 %14, label %15, label %17, !prof !11

15:                                               ; preds = %12
  %16 = add nsw i32 %13, -1
  store i32 %16, ptr %.027, align 4, !tbaa !8
  br label %.thread

17:                                               ; preds = %12
  %.not.i = icmp eq i32 %13, 0
  br i1 %.not.i, label %.thread, label %18

18:                                               ; preds = %17
  tail call void @lean_dec_ref_cold(ptr noundef nonnull %.027) #7
  br label %.thread

19:                                               ; preds = %lean_nat_lt.exit.thread62, %lean_nat_lt.exit.thread, %lean_nat_lt.exit
  %20 = tail call ptr @lean_string_utf8_next(ptr noundef %0, ptr noundef %.027) #7
  %21 = tail call i32 @lean_string_utf8_get(ptr noundef %0, ptr noundef %.027) #7
  br i1 %.not, label %22, label %lean_dec.exit37

22:                                               ; preds = %19
  %23 = load i32, ptr %.027, align 4, !tbaa !8
  %24 = icmp sgt i32 %23, 1
  br i1 %24, label %25, label %27, !prof !11

25:                                               ; preds = %22
  %26 = add nsw i32 %23, -1
  store i32 %26, ptr %.027, align 4, !tbaa !8
  br label %lean_dec.exit37

27:                                               ; preds = %22
  %.not.i39 = icmp eq i32 %23, 0
  br i1 %.not.i39, label %lean_dec.exit37, label %28

28:                                               ; preds = %27
  tail call void @lean_dec_ref_cold(ptr noundef nonnull %.027) #7
  br label %lean_dec.exit37

lean_dec.exit37:                                  ; preds = %28, %27, %25, %19
  %.not66 = icmp eq i32 %21, 95
  br i1 %.not66, label %lean_dec.exit38, label %29

29:                                               ; preds = %lean_dec.exit37
  %30 = ptrtoint ptr %.029.ph to i64
  %31 = and i64 %30, 1
  %.not67 = icmp eq i64 %31, 0
  br i1 %.not67, label %44, label %32, !prof !15

32:                                               ; preds = %29
  %33 = lshr i64 %30, 1
  %34 = icmp ult ptr %.029.ph, inttoptr (i64 2 to ptr)
  br i1 %34, label %lean_dec.exit36, label %35

35:                                               ; preds = %32
  %mul.i = tail call { i64, i1 } @llvm.umul.with.overflow.i64(i64 %33, i64 10)
  %mul.val.i = extractvalue { i64, i1 } %mul.i, 0
  %36 = icmp sgt i64 %mul.val.i, -1
  br i1 %36, label %37, label %42

37:                                               ; preds = %35
  %mul.ov.i = extractvalue { i64, i1 } %mul.i, 1
  br i1 %mul.ov.i, label %42, label %38

38:                                               ; preds = %37
  %39 = shl nuw i64 %mul.val.i, 1
  %40 = or disjoint i64 %39, 1
  %41 = inttoptr i64 %40 to ptr
  br label %lean_dec.exit36

42:                                               ; preds = %37, %35
  %43 = tail call ptr @lean_nat_overflow_mul(i64 noundef %33, i64 noundef 10) #7
  br label %lean_dec.exit36

44:                                               ; preds = %29
  %45 = tail call ptr @lean_nat_big_mul(ptr noundef %.029.ph, ptr noundef nonnull inttoptr (i64 21 to ptr)) #7
  %46 = load i32, ptr %.029.ph, align 4, !tbaa !8
  %47 = icmp sgt i32 %46, 1
  br i1 %47, label %48, label %50, !prof !11

48:                                               ; preds = %44
  %49 = add nsw i32 %46, -1
  store i32 %49, ptr %.029.ph, align 4, !tbaa !8
  br label %lean_dec.exit36

50:                                               ; preds = %44
  %.not.i41 = icmp eq i32 %46, 0
  br i1 %.not.i41, label %lean_dec.exit36, label %51

51:                                               ; preds = %50
  tail call void @lean_dec_ref_cold(ptr noundef nonnull %.029.ph) #7
  br label %lean_dec.exit36

lean_dec.exit36:                                  ; preds = %42, %38, %32, %51, %50, %48
  %.2.i52 = phi ptr [ %45, %48 ], [ %45, %50 ], [ %45, %51 ], [ %43, %42 ], [ %41, %38 ], [ %.029.ph, %32 ]
  %52 = add i32 %21, -48
  %53 = zext i32 %52 to i64
  %54 = ptrtoint ptr %.2.i52 to i64
  %55 = and i64 %54, 1
  %.not68 = icmp eq i64 %55, 0
  br i1 %.not68, label %66, label %56, !prof !15

56:                                               ; preds = %lean_dec.exit36
  %57 = lshr i64 %54, 1
  %58 = add nuw i64 %57, %53
  %59 = icmp sgt i64 %58, -1
  br i1 %59, label %60, label %64, !prof !11

60:                                               ; preds = %56
  %61 = shl nuw i64 %58, 1
  %62 = or disjoint i64 %61, 1
  %63 = inttoptr i64 %62 to ptr
  br label %lean_dec.exit38.outer.backedge

64:                                               ; preds = %56
  %65 = tail call ptr @lean_big_usize_to_nat(i64 noundef range(i64 0, -1) %58) #7
  br label %lean_dec.exit38.outer.backedge

66:                                               ; preds = %lean_dec.exit36
  %67 = shl nuw nsw i64 %53, 1
  %68 = or disjoint i64 %67, 1
  %69 = inttoptr i64 %68 to ptr
  %70 = tail call ptr @lean_nat_big_add(ptr noundef %.2.i52, ptr noundef nonnull %69) #7
  %71 = load i32, ptr %.2.i52, align 4, !tbaa !8
  %72 = icmp sgt i32 %71, 1
  br i1 %72, label %73, label %75, !prof !11

73:                                               ; preds = %66
  %74 = add nsw i32 %71, -1
  store i32 %74, ptr %.2.i52, align 4, !tbaa !8
  br label %lean_dec.exit38.outer.backedge

lean_dec.exit38.outer.backedge:                   ; preds = %73, %75, %76, %64, %60
  %.029.ph.be = phi ptr [ %63, %60 ], [ %65, %64 ], [ %70, %76 ], [ %70, %75 ], [ %70, %73 ]
  br label %lean_dec.exit38.outer

75:                                               ; preds = %66
  %.not.i45 = icmp eq i32 %71, 0
  br i1 %.not.i45, label %lean_dec.exit38.outer.backedge, label %76

76:                                               ; preds = %75
  tail call void @lean_dec_ref_cold(ptr noundef nonnull %.2.i52) #7
  br label %lean_dec.exit38.outer.backedge

.thread:                                          ; preds = %lean_nat_lt.exit, %lean_nat_lt.exit.thread, %18, %17, %15
  ret ptr %.029.ph
}